target datalayout = "e-m:e-p270:32:32-p271:32:32-p272:64:64-i64:64-i128:128-f80:128-n8:16:32:64-S128"
target triple = "x86_64-pc-linux-gnu"

%struct.anon = type { ptr, ptr, ptr, i32 }

@.str.102 = private unnamed_addr constant [6 x i8] c"error\00", align 1
@.str.103 = private unnamed_addr constant [5 x i8] c"warn\00", align 1
@.str.104 = private unnamed_addr constant [7 x i8] c"ignore\00", align 1
@.str.105 = private unnamed_addr constant [32 x i8] c"Unknown fsck message type: '%s'\00", align 1

; Function Attrs: nounwind uwtable
define internal i32 @parse_msg_type(ptr noundef %0) #0 {
  %2 = alloca i32, align 4
  %3 = alloca ptr, align 8
  store ptr %0, ptr %3, align 8, !tbaa !9
  %4 = load ptr, ptr %3, align 8, !tbaa !9
  %5 = call i32 @strcmp(ptr noundef %4, ptr noundef @.str.102) #12
  %6 = icmp ne i32 %5, 0
  br i1 %6, label %8, label %7

7:                                                ; preds = %1
  store i32 3, ptr %2, align 4
  br label %20

8:                                                ; preds = %1
  %9 = load ptr, ptr %3, align 8, !tbaa !9
  %10 = call i32 @strcmp(ptr noundef %9, ptr noundef @.str.103) #12
  %11 = icmp ne i32 %10, 0
  br i1 %11, label %13, label %12

12:                                               ; preds = %8
  store i32 4, ptr %2, align 4
  br label %20

13:                                               ; preds = %8
  %14 = load ptr, ptr %3, align 8, !tbaa !9
  %15 = call i32 @strcmp(ptr noundef %14, ptr noundef @.str.104) #12
  %16 = icmp ne i32 %15, 0
  br i1 %16, label %18, label %17

17:                                               ; preds = %13
  store i32 0, ptr %2, align 4
  br label %20

18:                                               ; preds = %13
  %19 = load ptr, ptr %3, align 8, !tbaa !9
  call void (ptr, ...) @die(ptr noundef @.str.105, ptr noundef %19) #13
  unreachable

20:                                               ; preds = %17, %12, %7
  %21 = load i32, ptr %2, align 4
  ret i32 %21
}

; Function Attrs: nounwind uwtable
define internal i32 @parse_msg_id(ptr noundef %0) #0 {
  %2 = alloca i32, align 4
  %3 = alloca ptr, align 8
  %4 = alloca i32, align 4
  %5 = alloca i32, align 4
  store ptr %0, ptr %3, align 8, !tbaa !9
  call void @llvm.lifetime.start.p0(i64 4, ptr %4) #11
  call void @prepare_msg_ids()
  store i32 0, ptr %4, align 4, !tbaa !11
  br label %6

6:                                                ; preds = %21, %1
  %7 = load i32, ptr %4, align 4, !tbaa !11
  %8 = icmp slt i32 %7, 66
  br i1 %8, label %9, label %24

9:                                                ; preds = %6
  %10 = load ptr, ptr %3, align 8, !tbaa !9
  %11 = load i32, ptr %4, align 4, !tbaa !11
  %12 = sext i32 %11 to i64
  %13 = getelementptr inbounds [67 x %struct.anon], ptr @msg_id_info, i64 0, i64 %12
  %14 = getelementptr inbounds nuw %struct.anon, ptr %13, i32 0, i32 1
  %15 = load ptr, ptr %14, align 8, !tbaa !17
  %16 = call i32 @strcmp(ptr noundef %10, ptr noundef %15) #12
  %17 = icmp ne i32 %16, 0
  br i1 %17, label %20, label %18

18:                                               ; preds = %9
  %19 = load i32, ptr %4, align 4, !tbaa !11
  store i32 %19, ptr %2, align 4
  store i32 1, ptr %5, align 4
  br label %25

20:                                               ; preds = %9
  br label %21

21:                                               ; preds = %20
  %22 = load i32, ptr %4, align 4, !tbaa !11
  %23 = add nsw i32 %22, 1
  store i32 %23, ptr %4, align 4, !tbaa !11
  br label %6, !llvm.loop !23

24:                                               ; preds = %6
  store i32 -1, ptr %2, align 4
  store i32 1, ptr %5, align 4
  br label %25

25:                                               ; preds = %24, %18
  call void @llvm.lifetime.end.p0(i64 4, ptr %4) #11
  %26 = load i32, ptr %2, align 4
  ret i32 %26
}

; Function Attrs: nounwind uwtable
define dso_local i32 @is_valid_msg_type(ptr noundef %0, ptr noundef %1) #0 {
  %3 = alloca i32, align 4
  %4 = alloca ptr, align 8
  %5 = alloca ptr, align 8
  store ptr %0, ptr %4, align 8, !tbaa !9
  store ptr %1, ptr %5, align 8, !tbaa !9
  %6 = load ptr, ptr %4, align 8, !tbaa !9
  %7 = call i32 @parse_msg_id(ptr noundef %6)
  %8 = icmp slt i32 %7, 0
  br i1 %8, label %9, label %10

9:                                                ; preds = %2
  store i32 0, ptr %3, align 4
  br label %13

10:                                               ; preds = %2
  %11 = load ptr, ptr %5, align 8, !tbaa !9
  %12 = call i32 @parse_msg_type(ptr noundef %11)
  store i32 1, ptr %3, align 4
  br label %13

13:                                               ; preds = %10, %9
  %14 = load i32, ptr %3, align 4
  ret i32 %14
}