; Function Attrs: nounwind uwtable
define dso_local range(i32 0, 2) i32 @is_valid_msg_type(ptr noundef readonly captures(none) %0, ptr noundef %1) local_unnamed_addr #0 {
  tail call fastcc void @prepare_msg_ids()
  br label %3

3:                                                ; preds = %7, %2
  %indvars.iv.i = phi i64 [ 0, %2 ], [ %indvars.iv.next.i, %7 ]
  %4 = getelementptr inbounds nuw [67 x %struct.anon], ptr @msg_id_info, i64 0, i64 %indvars.iv.i, i32 1
  %5 = load ptr, ptr %4, align 8, !tbaa !13
  %6 = tail call i32 @strcmp(ptr noundef nonnull readonly dereferenceable(1) %0, ptr noundef nonnull dereferenceable(1) %5) #17
  %.not.i = icmp eq i32 %6, 0
  br i1 %.not.i, label %parse_msg_id.exit, label %7

7:                                                ; preds = %3
  %indvars.iv.next.i = add nuw nsw i64 %indvars.iv.i, 1
  %exitcond.not.i = icmp eq i64 %indvars.iv.next.i, 66
  br i1 %exitcond.not.i, label %parse_msg_type.exit, label %3, !llvm.loop !19

parse_msg_id.exit:                                ; preds = %3
  %8 = tail call i32 @strcmp(ptr noundef nonnull dereferenceable(1) %1, ptr noundef nonnull dereferenceable(6) @.str.102) #17
  %.not.i2 = icmp eq i32 %8, 0
  br i1 %.not.i2, label %parse_msg_type.exit, label %9

9:                                                ; preds = %parse_msg_id.exit
  %10 = tail call i32 @strcmp(ptr noundef nonnull dereferenceable(1) %1, ptr noundef nonnull dereferenceable(5) @.str.103) #17
  %.not4.i = icmp eq i32 %10, 0
  br i1 %.not4.i, label %parse_msg_type.exit, label %11

11:                                               ; preds = %9
  %12 = tail call i32 @strcmp(ptr noundef nonnull dereferenceable(1) %1, ptr noundef nonnull dereferenceable(7) @.str.104) #17
  %.not5.i = icmp eq i32 %12, 0
  br i1 %.not5.i, label %parse_msg_type.exit, label %13

13:                                               ; preds = %11
  tail call void (ptr, ...) @die(ptr noundef nonnull @.str.105, ptr noundef nonnull %1) #18
  unreachable

parse_msg_type.exit:                              ; preds = %7, %11, %9, %parse_msg_id.exit
  %.0 = phi i32 [ 1, %parse_msg_id.exit ], [ 1, %9 ], [ 1, %11 ], [ 0, %7 ]
  ret i32 %.0
}